target datalayout = "e-m:e-p270:32:32-p271:32:32-p272:64:64-i64:64-i128:128-f80:128-n8:16:32:64-S128"
target triple = "x86_64-pc-linux-gnu"

%struct.ChaChaPoly_Aead = type { %struct.ChaCha, %struct.Poly1305, i32, i32, i8, i8 }
%struct.ChaCha = type { [16 x i32], i32 }
%struct.Poly1305 = type { [3 x i64], [3 x i64], [2 x i64], i64, [16 x i8], i8 }

; Function Attrs: inlinehint nounwind uwtable
define internal i32 @ConstantCompare(ptr noundef %0, ptr noundef %1, i32 noundef %2) #3 {
  %4 = alloca ptr, align 8
  %5 = alloca ptr, align 8
  %6 = alloca i32, align 4
  %7 = alloca i32, align 4
  %8 = alloca i32, align 4
  store ptr %0, ptr %4, align 8, !tbaa !3
  store ptr %1, ptr %5, align 8, !tbaa !3
  store i32 %2, ptr %6, align 4, !tbaa !8
  call void @llvm.lifetime.start.p0(i64 4, ptr %7) #5
  call void @llvm.lifetime.start.p0(i64 4, ptr %8) #5
  store i32 0, ptr %8, align 4, !tbaa !8
  store i32 0, ptr %7, align 4, !tbaa !8
  br label %9

9:                                                ; preds = %29, %3
  %10 = load i32, ptr %7, align 4, !tbaa !8
  %11 = load i32, ptr %6, align 4, !tbaa !8
  %12 = icmp slt i32 %10, %11
  br i1 %12, label %13, label %32

13:                                               ; preds = %9
  %14 = load ptr, ptr %4, align 8, !tbaa !3
  %15 = load i32, ptr %7, align 4, !tbaa !8
  %16 = sext i32 %15 to i64
  %17 = getelementptr inbounds i8, ptr %14, i64 %16
  %18 = load i8, ptr %17, align 1, !tbaa !19
  %19 = zext i8 %18 to i32
  %20 = load ptr, ptr %5, align 8, !tbaa !3
  %21 = load i32, ptr %7, align 4, !tbaa !8
  %22 = sext i32 %21 to i64
  %23 = getelementptr inbounds i8, ptr %20, i64 %22
  %24 = load i8, ptr %23, align 1, !tbaa !19
  %25 = zext i8 %24 to i32
  %26 = xor i32 %19, %25
  %27 = load i32, ptr %8, align 4, !tbaa !8
  %28 = or i32 %27, %26
  store i32 %28, ptr %8, align 4, !tbaa !8
  br label %29

29:                                               ; preds = %13
  %30 = load i32, ptr %7, align 4, !tbaa !8
  %31 = add nsw i32 %30, 1
  store i32 %31, ptr %7, align 4, !tbaa !8
  br label %9, !llvm.loop !20

32:                                               ; preds = %9
  %33 = load i32, ptr %8, align 4, !tbaa !8
  call void @llvm.lifetime.end.p0(i64 4, ptr %8) #5
  call void @llvm.lifetime.end.p0(i64 4, ptr %7) #5
  ret i32 %33
}

; Function Attrs: nounwind uwtable
define i32 @wc_ChaCha20Poly1305_CheckTag(ptr noundef %0, ptr noundef %1) #0 {
  %3 = alloca i32, align 4
  %4 = alloca ptr, align 8
  %5 = alloca ptr, align 8
  %6 = alloca i32, align 4
  %7 = alloca i32, align 4
  store ptr %0, ptr %4, align 8, !tbaa !3
  store ptr %1, ptr %5, align 8, !tbaa !3
  call void @llvm.lifetime.start.p0(i64 4, ptr %6) #5
  store i32 0, ptr %6, align 4, !tbaa !8
  %8 = load ptr, ptr %4, align 8, !tbaa !3
  %9 = icmp eq ptr %8, null
  br i1 %9, label %13, label %10

10:                                               ; preds = %2
  %11 = load ptr, ptr %5, align 8, !tbaa !3
  %12 = icmp eq ptr %11, null
  br i1 %12, label %13, label %14

13:                                               ; preds = %10, %2
  store i32 -173, ptr %3, align 4
  store i32 1, ptr %7, align 4
  br label %22

14:                                               ; preds = %10
  %15 = load ptr, ptr %4, align 8, !tbaa !3
  %16 = load ptr, ptr %5, align 8, !tbaa !3
  %17 = call i32 @ConstantCompare(ptr noundef %15, ptr noundef %16, i32 noundef 16)
  %18 = icmp ne i32 %17, 0
  br i1 %18, label %19, label %20

19:                                               ; preds = %14
  store i32 -213, ptr %6, align 4, !tbaa !8
  br label %20

20:                                               ; preds = %19, %14
  %21 = load i32, ptr %6, align 4, !tbaa !8
  store i32 %21, ptr %3, align 4
  store i32 1, ptr %7, align 4
  br label %22

22:                                               ; preds = %20, %13
  call void @llvm.lifetime.end.p0(i64 4, ptr %6) #5
  %23 = load i32, ptr %3, align 4
  ret i32 %23
}

; Function Attrs: nounwind uwtable
define i32 @wc_ChaCha20Poly1305_UpdateAad(ptr noundef %0, ptr noundef %1, i32 noundef %2) #0 {
  %4 = alloca i32, align 4
  %5 = alloca ptr, align 8
  %6 = alloca ptr, align 8
  %7 = alloca i32, align 4
  %8 = alloca i32, align 4
  %9 = alloca i32, align 4
  store ptr %0, ptr %5, align 8, !tbaa !10
  store ptr %1, ptr %6, align 8, !tbaa !3
  store i32 %2, ptr %7, align 4, !tbaa !8
  call void @llvm.lifetime.start.p0(i64 4, ptr %8) #5
  store i32 0, ptr %8, align 4, !tbaa !8
  %10 = load ptr, ptr %5, align 8, !tbaa !10
  %11 = icmp eq ptr %10, null
  br i1 %11, label %18, label %12

12:                                               ; preds = %3
  %13 = load ptr, ptr %6, align 8, !tbaa !3
  %14 = icmp eq ptr %13, null
  br i1 %14, label %15, label %19

15:                                               ; preds = %12
  %16 = load i32, ptr %7, align 4, !tbaa !8
  %17 = icmp ugt i32 %16, 0
  br i1 %17, label %18, label %19

18:                                               ; preds = %15, %3
  store i32 -173, ptr %4, align 4
  store i32 1, ptr %9, align 4
  br label %65

19:                                               ; preds = %15, %12
  %20 = load ptr, ptr %5, align 8, !tbaa !10
  %21 = getelementptr inbounds nuw %struct.ChaChaPoly_Aead, ptr %20, i32 0, i32 4
  %22 = load i8, ptr %21, align 8, !tbaa !12
  %23 = zext i8 %22 to i32
  %24 = icmp ne i32 %23, 1
  br i1 %24, label %25, label %32

25:                                               ; preds = %19
  %26 = load ptr, ptr %5, align 8, !tbaa !10
  %27 = getelementptr inbounds nuw %struct.ChaChaPoly_Aead, ptr %26, i32 0, i32 4
  %28 = load i8, ptr %27, align 8, !tbaa !12
  %29 = zext i8 %28 to i32
  %30 = icmp ne i32 %29, 2
  br i1 %30, label %31, label %32

31:                                               ; preds = %25
  store i32 -192, ptr %4, align 4
  store i32 1, ptr %9, align 4
  br label %65

32:                                               ; preds = %25, %19
  %33 = load i32, ptr %7, align 4, !tbaa !8
  %34 = load ptr, ptr %5, align 8, !tbaa !10
  %35 = getelementptr inbounds nuw %struct.ChaChaPoly_Aead, ptr %34, i32 0, i32 2
  %36 = load i32, ptr %35, align 8, !tbaa !17
  %37 = sub i32 -1, %36
  %38 = icmp ugt i32 %33, %37
  br i1 %38, label %39, label %40

39:                                               ; preds = %32
  store i32 -274, ptr %4, align 4
  store i32 1, ptr %9, align 4
  br label %65

40:                                               ; preds = %32
  %41 = load ptr, ptr %6, align 8, !tbaa !3
  %42 = icmp ne ptr %41, null
  br i1 %42, label %43, label %63

43:                                               ; preds = %40
  %44 = load i32, ptr %7, align 4, !tbaa !8
  %45 = icmp ugt i32 %44, 0
  br i1 %45, label %46, label %63

46:                                               ; preds = %43
  %47 = load ptr, ptr %5, align 8, !tbaa !10
  %48 = getelementptr inbounds nuw %struct.ChaChaPoly_Aead, ptr %47, i32 0, i32 1
  %49 = load ptr, ptr %6, align 8, !tbaa !3
  %50 = load i32, ptr %7, align 4, !tbaa !8
  %51 = call i32 @wc_Poly1305Update(ptr noundef %48, ptr noundef %49, i32 noundef %50)
  store i32 %51, ptr %8, align 4, !tbaa !8
  %52 = load i32, ptr %8, align 4, !tbaa !8
  %53 = icmp eq i32 %52, 0
  br i1 %53, label %54, label %62

54:                                               ; preds = %46
  %55 = load i32, ptr %7, align 4, !tbaa !8
  %56 = load ptr, ptr %5, align 8, !tbaa !10
  %57 = getelementptr inbounds nuw %struct.ChaChaPoly_Aead, ptr %56, i32 0, i32 2
  %58 = load i32, ptr %57, align 8, !tbaa !17
  %59 = add i32 %58, %55
  store i32 %59, ptr %57, align 8, !tbaa !17
  %60 = load ptr, ptr %5, align 8, !tbaa !10
  %61 = getelementptr inbounds nuw %struct.ChaChaPoly_Aead, ptr %60, i32 0, i32 4
  store i8 2, ptr %61, align 8, !tbaa !12
  br label %62

62:                                               ; preds = %54, %46
  br label %63

63:                                               ; preds = %62, %43, %40
  %64 = load i32, ptr %8, align 4, !tbaa !8
  store i32 %64, ptr %4, align 4
  store i32 1, ptr %9, align 4
  br label %65

65:                                               ; preds = %63, %39, %31, %18
  call void @llvm.lifetime.end.p0(i64 4, ptr %8) #5
  %66 = load i32, ptr %4, align 4
  ret i32 %66
}

; Function Attrs: nounwind uwtable
define i32 @wc_ChaCha20Poly1305_Decrypt(ptr noundef %0, ptr noundef %1, ptr noundef %2, i32 noundef %3, ptr noundef %4, i32 noundef %5, ptr noundef %6, ptr noundef %7) #0 {
  %9 = alloca i32, align 4
  %10 = alloca ptr, align 8
  %11 = alloca ptr, align 8
  %12 = alloca ptr, align 8
  %13 = alloca i32, align 4
  %14 = alloca ptr, align 8
  %15 = alloca i32, align 4
  %16 = alloca ptr, align 8
  %17 = alloca ptr, align 8
  %18 = alloca i32, align 4
  %19 = alloca [1 x %struct.ChaChaPoly_Aead], align 16
  %20 = alloca [16 x i8], align 16
  %21 = alloca i32, align 4
  store ptr %0, ptr %10, align 8, !tbaa !3
  store ptr %1, ptr %11, align 8, !tbaa !3
  store ptr %2, ptr %12, align 8, !tbaa !3
  store i32 %3, ptr %13, align 4, !tbaa !8
  store ptr %4, ptr %14, align 8, !tbaa !3
  store i32 %5, ptr %15, align 4, !tbaa !8
  store ptr %6, ptr %16, align 8, !tbaa !3
  store ptr %7, ptr %17, align 8, !tbaa !3
  call void @llvm.lifetime.start.p0(i64 4, ptr %18) #5
  call void @llvm.lifetime.start.p0(i64 184, ptr %19) #5
  call void @llvm.lifetime.start.p0(i64 16, ptr %20) #5
  %22 = load ptr, ptr %10, align 8, !tbaa !3
  %23 = icmp ne ptr %22, null
  br i1 %23, label %24, label %39

24:                                               ; preds = %8
  %25 = load ptr, ptr %11, align 8, !tbaa !3
  %26 = icmp ne ptr %25, null
  br i1 %26, label %27, label %39

27:                                               ; preds = %24
  %28 = load i32, ptr %15, align 4, !tbaa !8
  %29 = icmp ugt i32 %28, 0
  br i1 %29, label %30, label %33

30:                                               ; preds = %27
  %31 = load ptr, ptr %14, align 8, !tbaa !3
  %32 = icmp eq ptr %31, null
  br i1 %32, label %39, label %33

33:                                               ; preds = %30, %27
  %34 = load ptr, ptr %16, align 8, !tbaa !3
  %35 = icmp ne ptr %34, null
  br i1 %35, label %36, label %39

36:                                               ; preds = %33
  %37 = load ptr, ptr %17, align 8, !tbaa !3
  %38 = icmp ne ptr %37, null
  br i1 %38, label %40, label %39

39:                                               ; preds = %36, %33, %30, %24, %8
  store i32 -173, ptr %9, align 4
  store i32 1, ptr %21, align 4
  br label %78

40:                                               ; preds = %36
  %41 = getelementptr inbounds [16 x i8], ptr %20, i64 0, i64 0
  call void @llvm.memset.p0.i64(ptr align 16 %41, i8 0, i64 16, i1 false)
  %42 = getelementptr inbounds [1 x %struct.ChaChaPoly_Aead], ptr %19, i64 0, i64 0
  %43 = load ptr, ptr %10, align 8, !tbaa !3
  %44 = load ptr, ptr %11, align 8, !tbaa !3
  %45 = call i32 @wc_ChaCha20Poly1305_Init(ptr noundef %42, ptr noundef %43, ptr noundef %44, i32 noundef 0)
  store i32 %45, ptr %18, align 4, !tbaa !8
  %46 = load i32, ptr %18, align 4, !tbaa !8
  %47 = icmp eq i32 %46, 0
  br i1 %47, label %48, label %53

48:                                               ; preds = %40
  %49 = getelementptr inbounds [1 x %struct.ChaChaPoly_Aead], ptr %19, i64 0, i64 0
  %50 = load ptr, ptr %12, align 8, !tbaa !3
  %51 = load i32, ptr %13, align 4, !tbaa !8
  %52 = call i32 @wc_ChaCha20Poly1305_UpdateAad(ptr noundef %49, ptr noundef %50, i32 noundef %51)
  store i32 %52, ptr %18, align 4, !tbaa !8
  br label %53

53:                                               ; preds = %48, %40
  %54 = load i32, ptr %18, align 4, !tbaa !8
  %55 = icmp eq i32 %54, 0
  br i1 %55, label %56, label %62

56:                                               ; preds = %53
  %57 = getelementptr inbounds [1 x %struct.ChaChaPoly_Aead], ptr %19, i64 0, i64 0
  %58 = load ptr, ptr %14, align 8, !tbaa !3
  %59 = load ptr, ptr %17, align 8, !tbaa !3
  %60 = load i32, ptr %15, align 4, !tbaa !8
  %61 = call i32 @wc_ChaCha20Poly1305_UpdateData(ptr noundef %57, ptr noundef %58, ptr noundef %59, i32 noundef %60)
  store i32 %61, ptr %18, align 4, !tbaa !8
  br label %62

62:                                               ; preds = %56, %53
  %63 = load i32, ptr %18, align 4, !tbaa !8
  %64 = icmp eq i32 %63, 0
  br i1 %64, label %65, label %69

65:                                               ; preds = %62
  %66 = getelementptr inbounds [1 x %struct.ChaChaPoly_Aead], ptr %19, i64 0, i64 0
  %67 = getelementptr inbounds [16 x i8], ptr %20, i64 0, i64 0
  %68 = call i32 @wc_ChaCha20Poly1305_Final(ptr noundef %66, ptr noundef %67)
  store i32 %68, ptr %18, align 4, !tbaa !8
  br label %69

69:                                               ; preds = %65, %62
  %70 = load i32, ptr %18, align 4, !tbaa !8
  %71 = icmp eq i32 %70, 0
  br i1 %71, label %72, label %76

72:                                               ; preds = %69
  %73 = load ptr, ptr %16, align 8, !tbaa !3
  %74 = getelementptr inbounds [16 x i8], ptr %20, i64 0, i64 0
  %75 = call i32 @wc_ChaCha20Poly1305_CheckTag(ptr noundef %73, ptr noundef %74)
  store i32 %75, ptr %18, align 4, !tbaa !8
  br label %76

76:                                               ; preds = %72, %69
  %77 = load i32, ptr %18, align 4, !tbaa !8
  store i32 %77, ptr %9, align 4
  store i32 1, ptr %21, align 4
  br label %78

78:                                               ; preds = %76, %39
  call void @llvm.lifetime.end.p0(i64 16, ptr %20) #5
  call void @llvm.lifetime.end.p0(i64 184, ptr %19) #5
  call void @llvm.lifetime.end.p0(i64 4, ptr %18) #5
  %79 = load i32, ptr %9, align 4
  ret i32 %79
}