; Function Attrs: nounwind uwtable
define i32 @wc_ChaCha20Poly1305_Decrypt(ptr noundef %0, ptr noundef %1, ptr noundef %2, i32 noundef %3, ptr noundef %4, i32 noundef %5, ptr noundef readonly captures(address_is_null) %6, ptr noundef %7) local_unnamed_addr #0 {
  %9 = alloca [1 x %struct.ChaChaPoly_Aead], align 16
  %10 = alloca [16 x i8], align 16
  call void @llvm.lifetime.start.p0(i64 184, ptr nonnull %9) #5
  call void @llvm.lifetime.start.p0(i64 16, ptr nonnull %10) #5
  %11 = icmp ne ptr %0, null
  %12 = icmp ne ptr %1, null
  %or.cond = and i1 %11, %12
  br i1 %or.cond, label %13, label %.thread37

13:                                               ; preds = %8
  %14 = icmp eq i32 %5, 0
  %15 = icmp ne ptr %4, null
  %or.cond3.not33 = or i1 %15, %14
  %16 = icmp ne ptr %6, null
  %or.cond5 = and i1 %or.cond3.not33, %16
  %17 = icmp ne ptr %7, null
  %or.cond7 = and i1 %or.cond5, %17
  br i1 %or.cond7, label %18, label %.thread37

18:                                               ; preds = %13
  call void @llvm.memset.p0.i64(ptr noundef nonnull align 16 dereferenceable(16) %10, i8 0, i64 16, i1 false)
  %19 = call i32 @wc_ChaCha20Poly1305_Init(ptr noundef nonnull %9, ptr noundef nonnull %0, ptr noundef nonnull %1, i32 noundef 0)
  %20 = icmp eq i32 %19, 0
  br i1 %20, label %21, label %.thread37

21:                                               ; preds = %18
  %22 = icmp eq ptr %2, null
  %23 = icmp ne i32 %3, 0
  %or.cond.i = and i1 %22, %23
  br i1 %or.cond.i, label %.thread37, label %24

24:                                               ; preds = %21
  %25 = getelementptr inbounds nuw i8, ptr %9, i64 176
  %26 = load i8, ptr %25, align 16, !tbaa !3
  %.off.i = add i8 %26, -1
  %switch.i = icmp ult i8 %.off.i, 2
  br i1 %switch.i, label %27, label %.thread37

27:                                               ; preds = %24
  %28 = getelementptr inbounds nuw i8, ptr %9, i64 168
  %29 = load i32, ptr %28, align 8, !tbaa !11
  %30 = xor i32 %29, -1
  %31 = icmp ugt i32 %3, %30
  br i1 %31, label %.thread37, label %32

32:                                               ; preds = %27
  %33 = icmp ne ptr %2, null
  %or.cond3.i = and i1 %33, %23
  br i1 %or.cond3.i, label %34, label %41

34:                                               ; preds = %32
  %35 = getelementptr inbounds nuw i8, ptr %9, i64 72
  %36 = call i32 @wc_Poly1305Update(ptr noundef nonnull %35, ptr noundef nonnull %2, i32 noundef %3) #5
  %37 = icmp eq i32 %36, 0
  br i1 %37, label %38, label %.thread37

38:                                               ; preds = %34
  %39 = load i32, ptr %28, align 8, !tbaa !11
  %40 = add i32 %39, %3
  store i32 %40, ptr %28, align 8, !tbaa !11
  store i8 2, ptr %25, align 16, !tbaa !3
  br label %41

41:                                               ; preds = %38, %32
  %42 = call i32 @wc_ChaCha20Poly1305_UpdateData(ptr noundef nonnull %9, ptr noundef %4, ptr noundef nonnull %7, i32 noundef %5)
  %43 = icmp eq i32 %42, 0
  br i1 %43, label %44, label %.thread37

44:                                               ; preds = %41
  %45 = call i32 @wc_ChaCha20Poly1305_Final(ptr noundef nonnull %9, ptr noundef nonnull %10)
  %46 = icmp eq i32 %45, 0
  br i1 %46, label %.preheader.i, label %.thread37

.preheader.i:                                     ; preds = %44, %.preheader.i
  %indvars.iv.i.i = phi i64 [ %indvars.iv.next.i.i, %.preheader.i ], [ 0, %44 ]
  %.010.i.i = phi i32 [ %53, %.preheader.i ], [ 0, %44 ]
  %47 = getelementptr inbounds nuw i8, ptr %6, i64 %indvars.iv.i.i
  %48 = load i8, ptr %47, align 1, !tbaa !13
  %49 = getelementptr inbounds nuw i8, ptr %10, i64 %indvars.iv.i.i
  %50 = load i8, ptr %49, align 1, !tbaa !13
  %51 = xor i8 %50, %48
  %52 = zext i8 %51 to i32
  %53 = or i32 %.010.i.i, %52
  %indvars.iv.next.i.i = add nuw nsw i64 %indvars.iv.i.i, 1
  %exitcond.not.i.i = icmp eq i64 %indvars.iv.next.i.i, 16
  br i1 %exitcond.not.i.i, label %wc_ChaCha20Poly1305_CheckTag.exit, label %.preheader.i, !llvm.loop !19

wc_ChaCha20Poly1305_CheckTag.exit:                ; preds = %.preheader.i
  %.not.i = icmp eq i32 %53, 0
  %spec.select.i = select i1 %.not.i, i32 0, i32 -213
  br label %.thread37

.thread37:                                        ; preds = %18, %21, %24, %27, %34, %41, %44, %wc_ChaCha20Poly1305_CheckTag.exit, %8, %13
  %.026 = phi i32 [ -173, %13 ], [ -173, %8 ], [ %spec.select.i, %wc_ChaCha20Poly1305_CheckTag.exit ], [ %45, %44 ], [ %42, %41 ], [ %36, %34 ], [ -274, %27 ], [ -192, %24 ], [ -173, %21 ], [ %19, %18 ]
  call void @llvm.lifetime.end.p0(i64 16, ptr nonnull %10) #5
  call void @llvm.lifetime.end.p0(i64 184, ptr nonnull %9) #5
  ret i32 %.026
}